target datalayout = "e-m:e-p270:32:32-p271:32:32-p272:64:64-i64:64-i128:128-f80:128-n8:16:32:64-S128"
target triple = "x86_64-pc-linux-gnu"

%struct._typeobject = type { %struct.PyVarObject, ptr, i64, i64, ptr, i64, ptr, ptr, ptr, ptr, ptr, ptr, ptr, ptr, ptr, ptr, ptr, ptr, ptr, i64, ptr, ptr, ptr, ptr, i64, ptr, ptr, ptr, ptr, ptr, ptr, ptr, ptr, ptr, i64, ptr, ptr, ptr, ptr, ptr, ptr, ptr, ptr, ptr, ptr, ptr, i32, ptr, ptr, i8, i16 }
%struct.PyVarObject = type { %struct._object, i64 }
%struct._object = type { %union.anon, ptr }
%union.anon = type { i64 }
%struct._ts = type { ptr, ptr, ptr, i64, %struct.anon.0, i32, i32, i32, i32, i32, i32, i32, i32, ptr, ptr, ptr, ptr, ptr, ptr, ptr, ptr, i32, ptr, i64, i64, ptr, i64, i32, ptr, ptr, ptr, i64, i64, ptr, ptr, ptr, %struct._err_stackitem, ptr, i64, ptr, ptr }
%struct.anon.0 = type { i32 }
%struct._err_stackitem = type { ptr, ptr }
%struct.anon = type { i32, i32 }
%struct.PyTupleObject = type { %struct.PyVarObject, [1 x ptr] }

@.str.6 = private unnamed_addr constant [31 x i8] c" while calling a Python object\00", align 1

; Function Attrs: inlinehint nounwind uwtable
define internal i32 @_Py_MakeRecCheck(ptr noundef %0) #1 {
  %2 = alloca ptr, align 8
  store ptr %0, ptr %2, align 8, !tbaa !4
  %3 = load ptr, ptr %2, align 8, !tbaa !4
  %4 = getelementptr inbounds nuw %struct._ts, ptr %3, i32 0, i32 9
  %5 = load i32, ptr %4, align 4, !tbaa !50
  %6 = add i32 %5, -1
  store i32 %6, ptr %4, align 4, !tbaa !50
  %7 = icmp slt i32 %5, 0
  %8 = zext i1 %7 to i32
  ret i32 %8
}

; Function Attrs: alwaysinline nounwind uwtable
define internal i32 @_Py_IsImmortal(ptr noundef %0) #3 {
  %2 = alloca ptr, align 8
  store ptr %0, ptr %2, align 8, !tbaa !9
  %3 = load ptr, ptr %2, align 8, !tbaa !9
  %4 = getelementptr inbounds nuw %struct._object, ptr %3, i32 0, i32 0
  %5 = getelementptr inbounds nuw %struct.anon, ptr %4, i32 0, i32 0
  %6 = load i32, ptr %5, align 8, !tbaa !24
  %7 = icmp slt i32 %6, 0
  %8 = zext i1 %7 to i32
  ret i32 %8
}

; Function Attrs: inlinehint nounwind uwtable
define internal i64 @Py_SIZE(ptr noundef %0) #1 {
  %2 = alloca ptr, align 8
  store ptr %0, ptr %2, align 8, !tbaa !9
  %3 = load ptr, ptr %2, align 8, !tbaa !9
  %4 = getelementptr inbounds nuw %struct.PyVarObject, ptr %3, i32 0, i32 1
  %5 = load i64, ptr %4, align 8, !tbaa !63
  ret i64 %5
}

; Function Attrs: inlinehint nounwind uwtable
define internal void @_Py_LeaveRecursiveCallTstate(ptr noundef %0) #1 {
  %2 = alloca ptr, align 8
  store ptr %0, ptr %2, align 8, !tbaa !4
  %3 = load ptr, ptr %2, align 8, !tbaa !4
  %4 = getelementptr inbounds nuw %struct._ts, ptr %3, i32 0, i32 9
  %5 = load i32, ptr %4, align 4, !tbaa !50
  %6 = add i32 %5, 1
  store i32 %6, ptr %4, align 4, !tbaa !50
  ret void
}

; Function Attrs: inlinehint nounwind uwtable
define internal i32 @_Py_EnterRecursiveCallTstate(ptr noundef %0, ptr noundef %1) #1 {
  %3 = alloca ptr, align 8
  %4 = alloca ptr, align 8
  store ptr %0, ptr %3, align 8, !tbaa !4
  store ptr %1, ptr %4, align 8, !tbaa !11
  %5 = load ptr, ptr %3, align 8, !tbaa !4
  %6 = call i32 @_Py_MakeRecCheck(ptr noundef %5)
  %7 = icmp ne i32 %6, 0
  br i1 %7, label %8, label %13

8:                                                ; preds = %2
  %9 = load ptr, ptr %3, align 8, !tbaa !4
  %10 = load ptr, ptr %4, align 8, !tbaa !11
  %11 = call i32 @_Py_CheckRecursiveCall(ptr noundef %9, ptr noundef %10)
  %12 = icmp ne i32 %11, 0
  br label %13

13:                                               ; preds = %8, %2
  %14 = phi i1 [ false, %2 ], [ %12, %8 ]
  %15 = zext i1 %14 to i32
  ret i32 %15
}

; Function Attrs: alwaysinline nounwind uwtable
define internal void @Py_DECREF(ptr noundef %0) #3 {
  %2 = alloca ptr, align 8
  store ptr %0, ptr %2, align 8, !tbaa !9
  %3 = load ptr, ptr %2, align 8, !tbaa !9
  %4 = call i32 @_Py_IsImmortal(ptr noundef %3)
  %5 = icmp ne i32 %4, 0
  br i1 %5, label %6, label %7

6:                                                ; preds = %1
  br label %16

7:                                                ; preds = %1
  %8 = load ptr, ptr %2, align 8, !tbaa !9
  %9 = getelementptr inbounds nuw %struct._object, ptr %8, i32 0, i32 0
  %10 = getelementptr inbounds nuw %struct.anon, ptr %9, i32 0, i32 0
  %11 = load i32, ptr %10, align 8, !tbaa !24
  %12 = add i32 %11, -1
  store i32 %12, ptr %10, align 8, !tbaa !24
  %13 = icmp eq i32 %12, 0
  br i1 %13, label %14, label %16

14:                                               ; preds = %7
  %15 = load ptr, ptr %2, align 8, !tbaa !9
  call void @_Py_Dealloc(ptr noundef %15)
  br label %16

16:                                               ; preds = %6, %14, %7
  ret void
}

; Function Attrs: nounwind uwtable
define dso_local ptr @_PyStack_AsDict(ptr noundef %0, ptr noundef %1) #0 {
  %3 = alloca ptr, align 8
  %4 = alloca ptr, align 8
  %5 = alloca i64, align 8
  store ptr %0, ptr %3, align 8, !tbaa !36
  store ptr %1, ptr %4, align 8, !tbaa !9
  call void @llvm.lifetime.start.p0(i64 8, ptr %5) #9
  %6 = load ptr, ptr %4, align 8, !tbaa !9
  %7 = call i64 @PyTuple_GET_SIZE(ptr noundef %6)
  store i64 %7, ptr %5, align 8, !tbaa !37
  %8 = load ptr, ptr %4, align 8, !tbaa !9
  %9 = getelementptr inbounds nuw %struct.PyTupleObject, ptr %8, i32 0, i32 1
  %10 = getelementptr [1 x ptr], ptr %9, i64 0, i64 0
  %11 = load ptr, ptr %3, align 8, !tbaa !36
  %12 = load i64, ptr %5, align 8, !tbaa !37
  %13 = call ptr @_PyDict_FromItems(ptr noundef %10, i64 noundef 1, ptr noundef %11, i64 noundef 1, i64 noundef %12)
  call void @llvm.lifetime.end.p0(i64 8, ptr %5) #9
  ret ptr %13
}

; Function Attrs: inlinehint nounwind uwtable
define internal i64 @PyTuple_GET_SIZE(ptr noundef %0) #1 {
  %2 = alloca ptr, align 8
  %3 = alloca ptr, align 8
  store ptr %0, ptr %2, align 8, !tbaa !9
  call void @llvm.lifetime.start.p0(i64 8, ptr %3) #9
  %4 = load ptr, ptr %2, align 8, !tbaa !9
  store ptr %4, ptr %3, align 8, !tbaa !38
  %5 = load ptr, ptr %3, align 8, !tbaa !38
  %6 = call i64 @Py_SIZE(ptr noundef %5)
  call void @llvm.lifetime.end.p0(i64 8, ptr %3) #9
  ret i64 %6
}

; Function Attrs: inlinehint nounwind uwtable
define internal i32 @PyType_HasFeature(ptr noundef %0, i64 noundef %1) #1 {
  %3 = alloca ptr, align 8
  %4 = alloca i64, align 8
  %5 = alloca i64, align 8
  store ptr %0, ptr %3, align 8, !tbaa !49
  store i64 %1, ptr %4, align 8, !tbaa !37
  call void @llvm.lifetime.start.p0(i64 8, ptr %5) #9
  %6 = load ptr, ptr %3, align 8, !tbaa !49
  %7 = getelementptr inbounds nuw %struct._typeobject, ptr %6, i32 0, i32 19
  %8 = load i64, ptr %7, align 8, !tbaa !46
  store i64 %8, ptr %5, align 8, !tbaa !37
  %9 = load i64, ptr %5, align 8, !tbaa !37
  %10 = load i64, ptr %4, align 8, !tbaa !37
  %11 = and i64 %9, %10
  %12 = icmp ne i64 %11, 0
  %13 = zext i1 %12 to i32
  call void @llvm.lifetime.end.p0(i64 8, ptr %5) #9
  ret i32 %13
}

; Function Attrs: inlinehint nounwind uwtable
define internal ptr @_Py_TYPE(ptr noundef %0) #1 {
  %2 = alloca ptr, align 8
  store ptr %0, ptr %2, align 8, !tbaa !9
  %3 = load ptr, ptr %2, align 8, !tbaa !9
  %4 = getelementptr inbounds nuw %struct._object, ptr %3, i32 0, i32 1
  %5 = load ptr, ptr %4, align 8, !tbaa !35
  ret ptr %5
}

; Function Attrs: nounwind uwtable
define dso_local ptr @_PyObject_MakeTpCall(ptr noundef %0, ptr noundef %1, ptr noundef %2, i64 noundef %3, ptr noundef %4) #0 {
  %6 = alloca ptr, align 8
  %7 = alloca ptr, align 8
  %8 = alloca ptr, align 8
  %9 = alloca ptr, align 8
  %10 = alloca i64, align 8
  %11 = alloca ptr, align 8
  %12 = alloca ptr, align 8
  %13 = alloca i32, align 4
  %14 = alloca ptr, align 8
  %15 = alloca ptr, align 8
  %16 = alloca ptr, align 8
  store ptr %0, ptr %7, align 8, !tbaa !4
  store ptr %1, ptr %8, align 8, !tbaa !9
  store ptr %2, ptr %9, align 8, !tbaa !36
  store i64 %3, ptr %10, align 8, !tbaa !37
  store ptr %4, ptr %11, align 8, !tbaa !9
  call void @llvm.lifetime.start.p0(i64 8, ptr %12) #9
  %17 = load ptr, ptr %8, align 8, !tbaa !9
  %18 = call ptr @_Py_TYPE(ptr noundef %17)
  %19 = getelementptr inbounds nuw %struct._typeobject, ptr %18, i32 0, i32 14
  %20 = load ptr, ptr %19, align 8, !tbaa !39
  store ptr %20, ptr %12, align 8, !tbaa !38
  %21 = load ptr, ptr %12, align 8, !tbaa !38
  %22 = icmp eq ptr %21, null
  br i1 %22, label %23, label %26

23:                                               ; preds = %5
  %24 = load ptr, ptr %7, align 8, !tbaa !4
  %25 = load ptr, ptr %8, align 8, !tbaa !9
  call void @object_is_not_callable(ptr noundef %24, ptr noundef %25)
  store ptr null, ptr %6, align 8
  store i32 1, ptr %13, align 4
  br label %85

26:                                               ; preds = %5
  call void @llvm.lifetime.start.p0(i64 8, ptr %14) #9
  %27 = load ptr, ptr %9, align 8, !tbaa !36
  %28 = load i64, ptr %10, align 8, !tbaa !37
  %29 = call ptr @_PyTuple_FromArray(ptr noundef %27, i64 noundef %28)
  store ptr %29, ptr %14, align 8, !tbaa !9
  %30 = load ptr, ptr %14, align 8, !tbaa !9
  %31 = icmp eq ptr %30, null
  br i1 %31, label %32, label %33

32:                                               ; preds = %26
  store ptr null, ptr %6, align 8
  store i32 1, ptr %13, align 4
  br label %84

33:                                               ; preds = %26
  call void @llvm.lifetime.start.p0(i64 8, ptr %15) #9
  %34 = load ptr, ptr %11, align 8, !tbaa !9
  %35 = icmp eq ptr %34, null
  br i1 %35, label %41, label %36

36:                                               ; preds = %33
  %37 = load ptr, ptr %11, align 8, !tbaa !9
  %38 = call ptr @_Py_TYPE(ptr noundef %37)
  %39 = call i32 @PyType_HasFeature(ptr noundef %38, i64 noundef 536870912)
  %40 = icmp ne i32 %39, 0
  br i1 %40, label %41, label %43

41:                                               ; preds = %36, %33
  %42 = load ptr, ptr %11, align 8, !tbaa !9
  store ptr %42, ptr %15, align 8, !tbaa !9
  br label %60

43:                                               ; preds = %36
  %44 = load ptr, ptr %11, align 8, !tbaa !9
  %45 = call i64 @PyTuple_GET_SIZE(ptr noundef %44)
  %46 = icmp ne i64 %45, 0
  br i1 %46, label %47, label %58

47:                                               ; preds = %43
  %48 = load ptr, ptr %9, align 8, !tbaa !36
  %49 = load i64, ptr %10, align 8, !tbaa !37
  %50 = getelementptr ptr, ptr %48, i64 %49
  %51 = load ptr, ptr %11, align 8, !tbaa !9
  %52 = call ptr @_PyStack_AsDict(ptr noundef %50, ptr noundef %51)
  store ptr %52, ptr %15, align 8, !tbaa !9
  %53 = load ptr, ptr %15, align 8, !tbaa !9
  %54 = icmp eq ptr %53, null
  br i1 %54, label %55, label %57

55:                                               ; preds = %47
  %56 = load ptr, ptr %14, align 8, !tbaa !9
  call void @Py_DECREF(ptr noundef %56)
  store ptr null, ptr %6, align 8
  store i32 1, ptr %13, align 4
  br label %83

57:                                               ; preds = %47
  br label %59

58:                                               ; preds = %43
  store ptr null, ptr %15, align 8, !tbaa !9
  store ptr null, ptr %11, align 8, !tbaa !9
  br label %59

59:                                               ; preds = %58, %57
  br label %60

60:                                               ; preds = %59, %41
  call void @llvm.lifetime.start.p0(i64 8, ptr %16) #9
  store ptr null, ptr %16, align 8, !tbaa !9
  %61 = load ptr, ptr %7, align 8, !tbaa !4
  %62 = call i32 @_Py_EnterRecursiveCallTstate(ptr noundef %61, ptr noundef @.str.6)
  %63 = icmp eq i32 %62, 0
  br i1 %63, label %64, label %71

64:                                               ; preds = %60
  %65 = load ptr, ptr %12, align 8, !tbaa !38
  %66 = load ptr, ptr %8, align 8, !tbaa !9
  %67 = load ptr, ptr %14, align 8, !tbaa !9
  %68 = load ptr, ptr %15, align 8, !tbaa !9
  %69 = call ptr %65(ptr noundef %66, ptr noundef %67, ptr noundef %68)
  store ptr %69, ptr %16, align 8, !tbaa !9
  %70 = load ptr, ptr %7, align 8, !tbaa !4
  call void @_Py_LeaveRecursiveCallTstate(ptr noundef %70)
  br label %71

71:                                               ; preds = %64, %60
  %72 = load ptr, ptr %14, align 8, !tbaa !9
  call void @Py_DECREF(ptr noundef %72)
  %73 = load ptr, ptr %15, align 8, !tbaa !9
  %74 = load ptr, ptr %11, align 8, !tbaa !9
  %75 = icmp ne ptr %73, %74
  br i1 %75, label %76, label %78

76:                                               ; preds = %71
  %77 = load ptr, ptr %15, align 8, !tbaa !9
  call void @Py_DECREF(ptr noundef %77)
  br label %78

78:                                               ; preds = %76, %71
  %79 = load ptr, ptr %7, align 8, !tbaa !4
  %80 = load ptr, ptr %8, align 8, !tbaa !9
  %81 = load ptr, ptr %16, align 8, !tbaa !9
  %82 = call ptr @_Py_CheckFunctionResult(ptr noundef %79, ptr noundef %80, ptr noundef %81, ptr noundef null)
  store ptr %82, ptr %6, align 8
  store i32 1, ptr %13, align 4
  call void @llvm.lifetime.end.p0(i64 8, ptr %16) #9
  br label %83

83:                                               ; preds = %78, %55
  call void @llvm.lifetime.end.p0(i64 8, ptr %15) #9
  br label %84

84:                                               ; preds = %83, %32
  call void @llvm.lifetime.end.p0(i64 8, ptr %14) #9
  br label %85

85:                                               ; preds = %84, %23
  call void @llvm.lifetime.end.p0(i64 8, ptr %12) #9
  %86 = load ptr, ptr %6, align 8
  ret ptr %86
}