; Function Attrs: nounwind uwtable
define dso_local noundef ptr @_PyObject_MakeTpCall(ptr noundef %0, ptr noundef %1, ptr noundef %2, i64 noundef %3, ptr noundef %4) local_unnamed_addr #0 {
  %6 = getelementptr i8, ptr %1, i64 8
  %.val44 = load ptr, ptr %6, align 8, !tbaa !20
  %7 = getelementptr inbounds nuw i8, ptr %.val44, i64 128
  %8 = load ptr, ptr %7, align 8, !tbaa !43
  %9 = icmp eq ptr %8, null
  br i1 %9, label %10, label %11

10:                                               ; preds = %5
  tail call fastcc void @object_is_not_callable(ptr noundef %0, ptr noundef nonnull %1)
  br label %Py_DECREF.exit41

11:                                               ; preds = %5
  %12 = tail call ptr @_PyTuple_FromArray(ptr noundef %2, i64 noundef %3) #10
  %13 = icmp eq ptr %12, null
  br i1 %13, label %Py_DECREF.exit41, label %14

14:                                               ; preds = %11
  %15 = icmp eq ptr %4, null
  br i1 %15, label %33, label %16

16:                                               ; preds = %14
  %17 = getelementptr i8, ptr %4, i64 8
  %.val = load ptr, ptr %17, align 8, !tbaa !20
  %18 = getelementptr i8, ptr %.val, i64 168
  %.val45 = load i64, ptr %18, align 8, !tbaa !34
  %19 = and i64 %.val45, 536870912
  %.not = icmp eq i64 %19, 0
  br i1 %.not, label %20, label %33

20:                                               ; preds = %16
  %21 = getelementptr i8, ptr %4, i64 16
  %.val46 = load i64, ptr %21, align 8, !tbaa !40
  %.not36 = icmp eq i64 %.val46, 0
  br i1 %.not36, label %33, label %22

22:                                               ; preds = %20
  %23 = getelementptr ptr, ptr %2, i64 %3
  %24 = getelementptr inbounds nuw i8, ptr %4, i64 24
  %25 = tail call ptr @_PyDict_FromItems(ptr noundef nonnull %24, i64 noundef 1, ptr noundef %23, i64 noundef 1, i64 noundef %.val46) #10
  %26 = icmp eq ptr %25, null
  br i1 %26, label %27, label %33

27:                                               ; preds = %22
  %28 = load i32, ptr %12, align 8, !tbaa !24
  %.not.i40 = icmp sgt i32 %28, -1
  br i1 %.not.i40, label %29, label %Py_DECREF.exit41

29:                                               ; preds = %27
  %30 = add nsw i32 %28, -1
  store i32 %30, ptr %12, align 8, !tbaa !24
  %31 = icmp eq i32 %30, 0
  br i1 %31, label %32, label %Py_DECREF.exit41

32:                                               ; preds = %29
  tail call void @_Py_Dealloc(ptr noundef nonnull %12) #10
  br label %Py_DECREF.exit41

33:                                               ; preds = %20, %14, %16, %22
  %.031 = phi ptr [ %4, %22 ], [ %4, %16 ], [ null, %14 ], [ null, %20 ]
  %.029 = phi ptr [ %25, %22 ], [ %4, %16 ], [ null, %14 ], [ null, %20 ]
  %34 = getelementptr inbounds nuw i8, ptr %0, i64 52
  %35 = load i32, ptr %34, align 4, !tbaa !44
  %36 = add i32 %35, -1
  store i32 %36, ptr %34, align 4, !tbaa !44
  %.not.i47 = icmp sgt i32 %35, -1
  br i1 %.not.i47, label %_Py_EnterRecursiveCallTstate.exit.thread, label %_Py_EnterRecursiveCallTstate.exit

_Py_EnterRecursiveCallTstate.exit:                ; preds = %33
  %37 = tail call i32 @_Py_CheckRecursiveCall(ptr noundef nonnull %0, ptr noundef nonnull @.str.6) #10
  %.not48 = icmp eq i32 %37, 0
  br i1 %.not48, label %_Py_EnterRecursiveCallTstate.exit.thread, label %41

_Py_EnterRecursiveCallTstate.exit.thread:         ; preds = %33, %_Py_EnterRecursiveCallTstate.exit
  %38 = tail call ptr %8(ptr noundef nonnull %1, ptr noundef nonnull %12, ptr noundef %.029) #10
  %39 = load i32, ptr %34, align 4, !tbaa !44
  %40 = add i32 %39, 1
  store i32 %40, ptr %34, align 4, !tbaa !44
  br label %41

41:                                               ; preds = %_Py_EnterRecursiveCallTstate.exit.thread, %_Py_EnterRecursiveCallTstate.exit
  %.0 = phi ptr [ %38, %_Py_EnterRecursiveCallTstate.exit.thread ], [ null, %_Py_EnterRecursiveCallTstate.exit ]
  %42 = load i32, ptr %12, align 8, !tbaa !24
  %.not.i38 = icmp sgt i32 %42, -1
  br i1 %.not.i38, label %43, label %Py_DECREF.exit39

43:                                               ; preds = %41
  %44 = add nsw i32 %42, -1
  store i32 %44, ptr %12, align 8, !tbaa !24
  %45 = icmp eq i32 %44, 0
  br i1 %45, label %46, label %Py_DECREF.exit39

46:                                               ; preds = %43
  tail call void @_Py_Dealloc(ptr noundef nonnull %12) #10
  br label %Py_DECREF.exit39

Py_DECREF.exit39:                                 ; preds = %41, %43, %46
  %.not37 = icmp eq ptr %.029, %.031
  br i1 %.not37, label %Py_DECREF.exit, label %47

47:                                               ; preds = %Py_DECREF.exit39
  %48 = load i32, ptr %.029, align 8, !tbaa !24
  %.not.i = icmp sgt i32 %48, -1
  br i1 %.not.i, label %49, label %Py_DECREF.exit

49:                                               ; preds = %47
  %50 = add nsw i32 %48, -1
  store i32 %50, ptr %.029, align 8, !tbaa !24
  %51 = icmp eq i32 %50, 0
  br i1 %51, label %52, label %Py_DECREF.exit

52:                                               ; preds = %49
  tail call void @_Py_Dealloc(ptr noundef nonnull %.029) #10
  br label %Py_DECREF.exit

Py_DECREF.exit:                                   ; preds = %52, %49, %47, %Py_DECREF.exit39
  %53 = tail call ptr @_Py_CheckFunctionResult(ptr noundef nonnull %0, ptr noundef nonnull %1, ptr noundef %.0, ptr noundef null)
  br label %Py_DECREF.exit41

Py_DECREF.exit41:                                 ; preds = %32, %29, %27, %11, %Py_DECREF.exit, %10
  %.030 = phi ptr [ null, %10 ], [ null, %11 ], [ %53, %Py_DECREF.exit ], [ null, %27 ], [ null, %29 ], [ null, %32 ]
  ret ptr %.030
}